; Function Attrs: nounwind uwtable
define ptr @l___private_Lean_Elab_MutualInductive_0__Lean_Elab_Command_mkIndFVar2Const(ptr noundef readonly captures(none) %0, ptr noundef readonly captures(none) %1, ptr noundef %2) local_unnamed_addr #1 {
  %4 = tail call ptr @l_List_mapTR_loop___at_Lean_mkConstWithLevelParams___spec__1(ptr noundef %2, ptr noundef nonnull inttoptr (i64 1 to ptr)) #5
  %5 = getelementptr i8, ptr %0, i64 8
  %.val = load i64, ptr %5, align 8, !tbaa !4
  tail call void @lean_inc_heartbeat() #5
  %6 = tail call noalias ptr @mi_malloc_small(i64 noundef 32) #5
  %7 = icmp eq ptr %6, null
  br i1 %7, label %8, label %lean_alloc_ctor.exit

8:                                                ; preds = %3
  tail call void @lean_internal_panic_out_of_memory() #6
  unreachable

lean_alloc_ctor.exit:                             ; preds = %3
  %9 = shl i64 %.val, 1
  %10 = or disjoint i64 %9, 1
  %11 = inttoptr i64 %10 to ptr
  %12 = getelementptr inbounds nuw i8, ptr %6, i64 4
  store i32 1, ptr %6, align 4, !tbaa !8
  store i32 196640, ptr %12, align 4
  %13 = getelementptr inbounds nuw i8, ptr %6, i64 8
  store ptr inttoptr (i64 1 to ptr), ptr %13, align 8, !tbaa !12
  %14 = getelementptr inbounds nuw i8, ptr %6, i64 16
  store ptr %11, ptr %14, align 8, !tbaa !12
  %15 = getelementptr inbounds nuw i8, ptr %6, i64 24
  store ptr inttoptr (i64 3 to ptr), ptr %15, align 8, !tbaa !12
  %16 = load ptr, ptr @l___private_Lean_Elab_MutualInductive_0__Lean_Elab_Command_removeUnused___closed__3, align 8, !tbaa !12
  %17 = tail call ptr @l_Std_Range_forIn_x27_loop___at___private_Lean_Elab_MutualInductive_0__Lean_Elab_Command_mkIndFVar2Const___spec__1(ptr noundef nonnull %0, ptr noundef %1, ptr noundef %4, ptr noundef nonnull inttoptr (i64 1 to ptr), ptr noundef nonnull %6, ptr noundef %16, ptr noundef nonnull inttoptr (i64 1 to ptr), ptr nonnull poison, ptr nonnull poison)
  %18 = ptrtoint ptr %6 to i64
  %19 = and i64 %18, 1
  %.not = icmp eq i64 %19, 0
  br i1 %.not, label %20, label %lean_dec.exit

20:                                               ; preds = %lean_alloc_ctor.exit
  %21 = load i32, ptr %6, align 4, !tbaa !8
  %22 = icmp sgt i32 %21, 1
  br i1 %22, label %23, label %25, !prof !11

23:                                               ; preds = %20
  %24 = add nsw i32 %21, -1
  store i32 %24, ptr %6, align 4, !tbaa !8
  br label %lean_dec.exit

25:                                               ; preds = %20
  %.not.i = icmp eq i32 %21, 0
  br i1 %.not.i, label %lean_dec.exit, label %26

26:                                               ; preds = %25
  tail call void @lean_dec_ref_cold(ptr noundef nonnull %6) #5
  br label %lean_dec.exit

lean_dec.exit:                                    ; preds = %26, %25, %23, %lean_alloc_ctor.exit
  ret ptr %17
}